; Function Attrs: mustprogress nofree norecurse nosync nounwind willreturn memory(read, argmem: readwrite, inaccessiblemem: none) uwtable
define dso_local range(i32 0, 2) i32 @WPACKET_get_length(ptr noundef readonly captures(none) %0, ptr noundef writeonly captures(address_is_null) %1) local_unnamed_addr #9 {
  %3 = getelementptr inbounds nuw i8, ptr %0, i64 40
  %4 = load ptr, ptr %3, align 8, !tbaa !4
  %5 = icmp ne ptr %4, null
  %6 = icmp ne ptr %1, null
  %7 = and i1 %6, %5
  br i1 %7, label %8, label %14, !prof !14

8:                                                ; preds = %2
  %9 = getelementptr inbounds nuw i8, ptr %0, i64 24
  %10 = load i64, ptr %9, align 8, !tbaa !16
  %11 = getelementptr inbounds nuw i8, ptr %4, i64 24
  %12 = load i64, ptr %11, align 8, !tbaa !27
  %13 = sub i64 %10, %12
  store i64 %13, ptr %1, align 8, !tbaa !38
  br label %14

14:                                               ; preds = %2, %8
  %.0 = phi i32 [ 1, %8 ], [ 0, %2 ]
  ret i32 %.0
}